target datalayout = "e-m:e-p270:32:32-p271:32:32-p272:64:64-i64:64-i128:128-f80:128-n8:16:32:64-S128"
target triple = "x86_64-pc-linux-gnu"

%"class.std::__cxx11::basic_string" = type { %"struct.std::__cxx11::basic_string<char>::_Alloc_hider", i64, %union.anon }
%"struct.std::__cxx11::basic_string<char>::_Alloc_hider" = type { ptr }
%union.anon = type { i64, [8 x i8] }

@.str = private unnamed_addr constant [9 x i8] c"%c%c%c%c\00", align 1

; Function Attrs: mustprogress uwtable
define hidden void @_ZN2cv14fourccToStringB5cxx11Ej(ptr dead_on_unwind noalias writable sret(%"class.std::__cxx11::basic_string") align 8 %0, i32 noundef %1) #6 {
  %3 = alloca ptr, align 8
  %4 = alloca i32, align 4
  store ptr %0, ptr %3, align 8
  store i32 %1, ptr %4, align 4, !tbaa !3
  %5 = load i32, ptr %4, align 4, !tbaa !3
  %6 = and i32 %5, 255
  %7 = load i32, ptr %4, align 4, !tbaa !3
  %8 = lshr i32 %7, 8
  %9 = and i32 %8, 255
  %10 = load i32, ptr %4, align 4, !tbaa !3
  %11 = lshr i32 %10, 16
  %12 = and i32 %11, 255
  %13 = load i32, ptr %4, align 4, !tbaa !3
  %14 = lshr i32 %13, 24
  %15 = and i32 %14, 255
  call void (ptr, ptr, ...) @_ZN2cv6formatB5cxx11EPKcz(ptr dead_on_unwind writable sret(%"class.std::__cxx11::basic_string") align 8 %0, ptr noundef @.str, i32 noundef %6, i32 noundef %9, i32 noundef %12, i32 noundef %15)
  ret void
}