; Function Attrs: mustprogress uwtable
define hidden void @_ZN2cv14fourccToStringB5cxx11Ej(ptr dead_on_unwind noalias writable sret(%"class.std::__cxx11::basic_string") align 8 %0, i32 noundef %1) local_unnamed_addr #4 {
  %3 = and i32 %1, 255
  %4 = lshr i32 %1, 8
  %5 = and i32 %4, 255
  %6 = lshr i32 %1, 16
  %7 = and i32 %6, 255
  %8 = lshr i32 %1, 24
  tail call void (ptr, ptr, ...) @_ZN2cv6formatB5cxx11EPKcz(ptr dead_on_unwind writable sret(%"class.std::__cxx11::basic_string") align 8 %0, ptr noundef nonnull @.str, i32 noundef %3, i32 noundef %5, i32 noundef %7, i32 noundef %8)
  ret void
}